target datalayout = "e-m:e-p270:32:32-p271:32:32-p272:64:64-i64:64-i128:128-f80:128-n8:16:32:64-S128"
target triple = "x86_64-pc-linux-gnu"

%struct.PJconsts = type { ptr, ptr, ptr, ptr, ptr, ptr, ptr, ptr, ptr, ptr, ptr, ptr, i32, ptr, ptr, ptr, ptr, ptr, ptr, ptr, ptr, double, double, double, double, double, double, double, double, double, double, double, double, double, double, double, double, double, double, double, double, double, double, i32, i32, i32, i32, i32, i32, i32, i32, i32, i32, i32, ptr, ptr, ptr, ptr, ptr, ptr, double, double, double, double, double, double, double, double, double, double, double, i32, [7 x double], i32, ptr, ptr, double, double, i32, [4 x i8], %"class.std::shared_ptr", i8, double, i8, %"class.std::__cxx11::basic_string", %"class.std::__cxx11::basic_string", %"class.std::__cxx11::basic_string", i8, %"class.std::vector", i32, %"class.std::vector.3", i32, i8, i8, i8, ptr }
%"class.std::shared_ptr" = type { %"class.std::__shared_ptr" }
%"class.std::__shared_ptr" = type { ptr, %"class.std::__shared_count" }
%"class.std::__shared_count" = type { ptr }
%"class.std::__cxx11::basic_string" = type { %"struct.std::__cxx11::basic_string<char>::_Alloc_hider", i64, %union.anon }
%"struct.std::__cxx11::basic_string<char>::_Alloc_hider" = type { ptr }
%union.anon = type { i64, [8 x i8] }
%"class.std::vector" = type { %"struct.std::_Vector_base" }
%"struct.std::_Vector_base" = type { %"struct.std::_Vector_base<osgeo::proj::operation::GridDescription, std::allocator<osgeo::proj::operation::GridDescription>>::_Vector_impl" }
%"struct.std::_Vector_base<osgeo::proj::operation::GridDescription, std::allocator<osgeo::proj::operation::GridDescription>>::_Vector_impl" = type { %"struct.std::_Vector_base<osgeo::proj::operation::GridDescription, std::allocator<osgeo::proj::operation::GridDescription>>::_Vector_impl_data" }
%"struct.std::_Vector_base<osgeo::proj::operation::GridDescription, std::allocator<osgeo::proj::operation::GridDescription>>::_Vector_impl_data" = type { ptr, ptr, ptr }
%"class.std::vector.3" = type { %"struct.std::_Vector_base.4" }
%"struct.std::_Vector_base.4" = type { %"struct.std::_Vector_base<PJCoordOperation, std::allocator<PJCoordOperation>>::_Vector_impl" }
%"struct.std::_Vector_base<PJCoordOperation, std::allocator<PJCoordOperation>>::_Vector_impl" = type { %"struct.std::_Vector_base<PJCoordOperation, std::allocator<PJCoordOperation>>::_Vector_impl_data" }
%"struct.std::_Vector_base<PJCoordOperation, std::allocator<PJCoordOperation>>::_Vector_impl_data" = type { ptr, ptr, ptr }
%"struct.(anonymous namespace)::pj_aea" = type { double, double, double, double, double, double, double, double, double, ptr, i32 }
%struct.PJ_LP = type { double, double }
%struct.PJ_XY = type { double, double }

; Function Attrs: mustprogress nounwind uwtable
define internal noundef double @_ZL5phi1_ddd(double noundef %0, double noundef %1, double noundef %2) #7 {
  %4 = alloca double, align 8
  %5 = alloca double, align 8
  %6 = alloca double, align 8
  %7 = alloca double, align 8
  %8 = alloca i32, align 4
  %9 = alloca double, align 8
  %10 = alloca double, align 8
  %11 = alloca double, align 8
  %12 = alloca double, align 8
  %13 = alloca double, align 8
  %14 = alloca double, align 8
  %15 = alloca i32, align 4
  store double %0, ptr %5, align 8, !tbaa !56
  store double %1, ptr %6, align 8, !tbaa !56
  store double %2, ptr %7, align 8, !tbaa !56
  call void @llvm.lifetime.start.p0(i64 4, ptr %8) #8
  call void @llvm.lifetime.start.p0(i64 8, ptr %9) #8
  call void @llvm.lifetime.start.p0(i64 8, ptr %10) #8
  call void @llvm.lifetime.start.p0(i64 8, ptr %11) #8
  call void @llvm.lifetime.start.p0(i64 8, ptr %12) #8
  call void @llvm.lifetime.start.p0(i64 8, ptr %13) #8
  call void @llvm.lifetime.start.p0(i64 8, ptr %14) #8
  %16 = load double, ptr %5, align 8, !tbaa !56
  %17 = fmul double 5.000000e-01, %16
  %18 = call double @asin(double noundef %17) #8, !tbaa !52
  store double %18, ptr %9, align 8, !tbaa !56
  %19 = load double, ptr %6, align 8, !tbaa !56
  %20 = fcmp olt double %19, 0x3E7AD7F29ABCAF48
  br i1 %20, label %21, label %23

21:                                               ; preds = %3
  %22 = load double, ptr %9, align 8, !tbaa !56
  store double %22, ptr %4, align 8
  store i32 1, ptr %15, align 4
  br label %74

23:                                               ; preds = %3
  store i32 15, ptr %8, align 4, !tbaa !52
  br label %24

24:                                               ; preds = %70, %23
  %25 = load double, ptr %9, align 8, !tbaa !56
  %26 = call double @sin(double noundef %25) #8, !tbaa !52
  store double %26, ptr %10, align 8, !tbaa !56
  %27 = load double, ptr %9, align 8, !tbaa !56
  %28 = call double @cos(double noundef %27) #8, !tbaa !52
  store double %28, ptr %11, align 8, !tbaa !56
  %29 = load double, ptr %6, align 8, !tbaa !56
  %30 = load double, ptr %10, align 8, !tbaa !56
  %31 = fmul double %29, %30
  store double %31, ptr %12, align 8, !tbaa !56
  %32 = load double, ptr %12, align 8, !tbaa !56
  %33 = load double, ptr %12, align 8, !tbaa !56
  %34 = fneg double %32
  %35 = call double @llvm.fmuladd.f64(double %34, double %33, double 1.000000e+00)
  store double %35, ptr %13, align 8, !tbaa !56
  %36 = load double, ptr %13, align 8, !tbaa !56
  %37 = fmul double 5.000000e-01, %36
  %38 = load double, ptr %13, align 8, !tbaa !56
  %39 = fmul double %37, %38
  %40 = load double, ptr %11, align 8, !tbaa !56
  %41 = fdiv double %39, %40
  %42 = load double, ptr %5, align 8, !tbaa !56
  %43 = load double, ptr %7, align 8, !tbaa !56
  %44 = fdiv double %42, %43
  %45 = load double, ptr %10, align 8, !tbaa !56
  %46 = load double, ptr %13, align 8, !tbaa !56
  %47 = fdiv double %45, %46
  %48 = fsub double %44, %47
  %49 = load double, ptr %6, align 8, !tbaa !56
  %50 = fdiv double 5.000000e-01, %49
  %51 = load double, ptr %12, align 8, !tbaa !56
  %52 = fsub double 1.000000e+00, %51
  %53 = load double, ptr %12, align 8, !tbaa !56
  %54 = fadd double 1.000000e+00, %53
  %55 = fdiv double %52, %54
  %56 = call double @log(double noundef %55) #8, !tbaa !52
  %57 = call double @llvm.fmuladd.f64(double %50, double %56, double %48)
  %58 = fmul double %41, %57
  store double %58, ptr %14, align 8, !tbaa !56
  %59 = load double, ptr %14, align 8, !tbaa !56
  %60 = load double, ptr %9, align 8, !tbaa !56
  %61 = fadd double %60, %59
  store double %61, ptr %9, align 8, !tbaa !56
  %62 = load double, ptr %14, align 8, !tbaa !56
  %63 = call double @llvm.fabs.f64(double %62)
  %64 = fcmp ogt double %63, 1.000000e-10
  br i1 %64, label %67, label %65

65:                                               ; preds = %24
  %66 = load double, ptr %9, align 8, !tbaa !56
  store double %66, ptr %4, align 8
  store i32 1, ptr %15, align 4
  br label %74

67:                                               ; preds = %24
  %68 = load i32, ptr %8, align 4, !tbaa !52
  %69 = add nsw i32 %68, -1
  store i32 %69, ptr %8, align 4, !tbaa !52
  br label %70

70:                                               ; preds = %67
  %71 = load i32, ptr %8, align 4, !tbaa !52
  %72 = icmp sge i32 %71, 0
  br i1 %72, label %24, label %73, !llvm.loop !76

73:                                               ; preds = %70
  store double 0x7FF0000000000000, ptr %4, align 8
  store i32 1, ptr %15, align 4
  br label %74

74:                                               ; preds = %73, %65, %21
  call void @llvm.lifetime.end.p0(i64 8, ptr %14) #8
  call void @llvm.lifetime.end.p0(i64 8, ptr %13) #8
  call void @llvm.lifetime.end.p0(i64 8, ptr %12) #8
  call void @llvm.lifetime.end.p0(i64 8, ptr %11) #8
  call void @llvm.lifetime.end.p0(i64 8, ptr %10) #8
  call void @llvm.lifetime.end.p0(i64 8, ptr %9) #8
  call void @llvm.lifetime.end.p0(i64 4, ptr %8) #8
  %75 = load double, ptr %4, align 8
  ret double %75
}

; Function Attrs: mustprogress uwtable
define internal { double, double } @_ZL13aea_e_inverse5PJ_XYP8PJconsts(double %0, double %1, ptr noundef %2) #0 {
  %4 = alloca %struct.PJ_LP, align 8
  %5 = alloca %struct.PJ_XY, align 8
  %6 = alloca ptr, align 8
  %7 = alloca ptr, align 8
  %8 = alloca i32, align 4
  %9 = getelementptr inbounds nuw { double, double }, ptr %5, i32 0, i32 0
  store double %0, ptr %9, align 8
  %10 = getelementptr inbounds nuw { double, double }, ptr %5, i32 0, i32 1
  store double %1, ptr %10, align 8
  store ptr %2, ptr %6, align 8, !tbaa !3
  call void @llvm.memset.p0.i64(ptr align 8 %4, i8 0, i64 16, i1 false)
  call void @llvm.lifetime.start.p0(i64 8, ptr %7) #8
  %11 = load ptr, ptr %6, align 8, !tbaa !3
  %12 = getelementptr inbounds nuw %struct.PJconsts, ptr %11, i32 0, i32 11
  %13 = load ptr, ptr %12, align 8, !tbaa !43
  store ptr %13, ptr %7, align 8, !tbaa !41
  %14 = load ptr, ptr %7, align 8, !tbaa !41
  %15 = getelementptr inbounds nuw %"struct.(anonymous namespace)::pj_aea", ptr %14, i32 0, i32 5
  %16 = load double, ptr %15, align 8, !tbaa !67
  %17 = getelementptr inbounds nuw %struct.PJ_XY, ptr %5, i32 0, i32 1
  %18 = load double, ptr %17, align 8, !tbaa !69
  %19 = fsub double %16, %18
  %20 = getelementptr inbounds nuw %struct.PJ_XY, ptr %5, i32 0, i32 1
  store double %19, ptr %20, align 8, !tbaa !69
  %21 = getelementptr inbounds nuw %struct.PJ_XY, ptr %5, i32 0, i32 0
  %22 = load double, ptr %21, align 8, !tbaa !71
  %23 = getelementptr inbounds nuw %struct.PJ_XY, ptr %5, i32 0, i32 1
  %24 = load double, ptr %23, align 8, !tbaa !69
  %25 = call double @hypot(double noundef %22, double noundef %24) #8, !tbaa !52
  %26 = load ptr, ptr %7, align 8, !tbaa !41
  %27 = getelementptr inbounds nuw %"struct.(anonymous namespace)::pj_aea", ptr %26, i32 0, i32 6
  store double %25, ptr %27, align 8, !tbaa !72
  %28 = load ptr, ptr %7, align 8, !tbaa !41
  %29 = getelementptr inbounds nuw %"struct.(anonymous namespace)::pj_aea", ptr %28, i32 0, i32 6
  %30 = load double, ptr %29, align 8, !tbaa !72
  %31 = fcmp une double %30, 0.000000e+00
  br i1 %31, label %32, label %164

32:                                               ; preds = %3
  %33 = load ptr, ptr %7, align 8, !tbaa !41
  %34 = getelementptr inbounds nuw %"struct.(anonymous namespace)::pj_aea", ptr %33, i32 0, i32 1
  %35 = load double, ptr %34, align 8, !tbaa !57
  %36 = fcmp olt double %35, 0.000000e+00
  br i1 %36, label %37, label %52

37:                                               ; preds = %32
  %38 = load ptr, ptr %7, align 8, !tbaa !41
  %39 = getelementptr inbounds nuw %"struct.(anonymous namespace)::pj_aea", ptr %38, i32 0, i32 6
  %40 = load double, ptr %39, align 8, !tbaa !72
  %41 = fneg double %40
  %42 = load ptr, ptr %7, align 8, !tbaa !41
  %43 = getelementptr inbounds nuw %"struct.(anonymous namespace)::pj_aea", ptr %42, i32 0, i32 6
  store double %41, ptr %43, align 8, !tbaa !72
  %44 = getelementptr inbounds nuw %struct.PJ_XY, ptr %5, i32 0, i32 0
  %45 = load double, ptr %44, align 8, !tbaa !71
  %46 = fneg double %45
  %47 = getelementptr inbounds nuw %struct.PJ_XY, ptr %5, i32 0, i32 0
  store double %46, ptr %47, align 8, !tbaa !71
  %48 = getelementptr inbounds nuw %struct.PJ_XY, ptr %5, i32 0, i32 1
  %49 = load double, ptr %48, align 8, !tbaa !69
  %50 = fneg double %49
  %51 = getelementptr inbounds nuw %struct.PJ_XY, ptr %5, i32 0, i32 1
  store double %50, ptr %51, align 8, !tbaa !69
  br label %52

52:                                               ; preds = %37, %32
  %53 = load ptr, ptr %7, align 8, !tbaa !41
  %54 = getelementptr inbounds nuw %"struct.(anonymous namespace)::pj_aea", ptr %53, i32 0, i32 6
  %55 = load double, ptr %54, align 8, !tbaa !72
  %56 = load ptr, ptr %7, align 8, !tbaa !41
  %57 = getelementptr inbounds nuw %"struct.(anonymous namespace)::pj_aea", ptr %56, i32 0, i32 3
  %58 = load double, ptr %57, align 8, !tbaa !65
  %59 = fdiv double %55, %58
  %60 = getelementptr inbounds nuw %struct.PJ_LP, ptr %4, i32 0, i32 1
  store double %59, ptr %60, align 8, !tbaa !73
  %61 = load ptr, ptr %7, align 8, !tbaa !41
  %62 = getelementptr inbounds nuw %"struct.(anonymous namespace)::pj_aea", ptr %61, i32 0, i32 10
  %63 = load i32, ptr %62, align 8, !tbaa !59
  %64 = icmp ne i32 %63, 0
  br i1 %64, label %65, label %122

65:                                               ; preds = %52
  %66 = load ptr, ptr %7, align 8, !tbaa !41
  %67 = getelementptr inbounds nuw %"struct.(anonymous namespace)::pj_aea", ptr %66, i32 0, i32 2
  %68 = load double, ptr %67, align 8, !tbaa !64
  %69 = getelementptr inbounds nuw %struct.PJ_LP, ptr %4, i32 0, i32 1
  %70 = load double, ptr %69, align 8, !tbaa !73
  %71 = getelementptr inbounds nuw %struct.PJ_LP, ptr %4, i32 0, i32 1
  %72 = load double, ptr %71, align 8, !tbaa !73
  %73 = fneg double %70
  %74 = call double @llvm.fmuladd.f64(double %73, double %72, double %68)
  %75 = load ptr, ptr %7, align 8, !tbaa !41
  %76 = getelementptr inbounds nuw %"struct.(anonymous namespace)::pj_aea", ptr %75, i32 0, i32 1
  %77 = load double, ptr %76, align 8, !tbaa !57
  %78 = fdiv double %74, %77
  %79 = getelementptr inbounds nuw %struct.PJ_LP, ptr %4, i32 0, i32 1
  store double %78, ptr %79, align 8, !tbaa !73
  %80 = load ptr, ptr %7, align 8, !tbaa !41
  %81 = getelementptr inbounds nuw %"struct.(anonymous namespace)::pj_aea", ptr %80, i32 0, i32 0
  %82 = load double, ptr %81, align 8, !tbaa !63
  %83 = getelementptr inbounds nuw %struct.PJ_LP, ptr %4, i32 0, i32 1
  %84 = load double, ptr %83, align 8, !tbaa !73
  %85 = call double @llvm.fabs.f64(double %84)
  %86 = fsub double %82, %85
  %87 = call double @llvm.fabs.f64(double %86)
  %88 = fcmp ogt double %87, 0x3E7AD7F29ABCAF48
  br i1 %88, label %89, label %115

89:                                               ; preds = %65
  %90 = getelementptr inbounds nuw %struct.PJ_LP, ptr %4, i32 0, i32 1
  %91 = load double, ptr %90, align 8, !tbaa !73
  %92 = call double @llvm.fabs.f64(double %91)
  %93 = fcmp ogt double %92, 2.000000e+00
  br i1 %93, label %94, label %97

94:                                               ; preds = %89
  %95 = load ptr, ptr %6, align 8, !tbaa !3
  %96 = call i32 @proj_errno_set(ptr noundef %95, i32 noundef 2050)
  store i32 1, ptr %8, align 4
  br label %173

97:                                               ; preds = %89
  %98 = getelementptr inbounds nuw %struct.PJ_LP, ptr %4, i32 0, i32 1
  %99 = load double, ptr %98, align 8, !tbaa !73
  %100 = load ptr, ptr %6, align 8, !tbaa !3
  %101 = getelementptr inbounds nuw %struct.PJconsts, ptr %100, i32 0, i32 26
  %102 = load double, ptr %101, align 8, !tbaa !61
  %103 = load ptr, ptr %6, align 8, !tbaa !3
  %104 = getelementptr inbounds nuw %struct.PJconsts, ptr %103, i32 0, i32 32
  %105 = load double, ptr %104, align 8, !tbaa !62
  %106 = call noundef double @_ZL5phi1_ddd(double noundef %99, double noundef %102, double noundef %105)
  %107 = getelementptr inbounds nuw %struct.PJ_LP, ptr %4, i32 0, i32 1
  store double %106, ptr %107, align 8, !tbaa !73
  %108 = getelementptr inbounds nuw %struct.PJ_LP, ptr %4, i32 0, i32 1
  %109 = load double, ptr %108, align 8, !tbaa !73
  %110 = fcmp oeq double %109, 0x7FF0000000000000
  br i1 %110, label %111, label %114

111:                                              ; preds = %97
  %112 = load ptr, ptr %6, align 8, !tbaa !3
  %113 = call i32 @proj_errno_set(ptr noundef %112, i32 noundef 2050)
  store i32 1, ptr %8, align 4
  br label %173

114:                                              ; preds = %97
  br label %121

115:                                              ; preds = %65
  %116 = getelementptr inbounds nuw %struct.PJ_LP, ptr %4, i32 0, i32 1
  %117 = load double, ptr %116, align 8, !tbaa !73
  %118 = fcmp olt double %117, 0.000000e+00
  %119 = select i1 %118, double 0xBFF921FB54442D18, double 0x3FF921FB54442D18
  %120 = getelementptr inbounds nuw %struct.PJ_LP, ptr %4, i32 0, i32 1
  store double %119, ptr %120, align 8, !tbaa !73
  br label %121

121:                                              ; preds = %115, %114
  br label %153

122:                                              ; preds = %52
  %123 = load ptr, ptr %7, align 8, !tbaa !41
  %124 = getelementptr inbounds nuw %"struct.(anonymous namespace)::pj_aea", ptr %123, i32 0, i32 2
  %125 = load double, ptr %124, align 8, !tbaa !64
  %126 = getelementptr inbounds nuw %struct.PJ_LP, ptr %4, i32 0, i32 1
  %127 = load double, ptr %126, align 8, !tbaa !73
  %128 = getelementptr inbounds nuw %struct.PJ_LP, ptr %4, i32 0, i32 1
  %129 = load double, ptr %128, align 8, !tbaa !73
  %130 = fneg double %127
  %131 = call double @llvm.fmuladd.f64(double %130, double %129, double %125)
  %132 = load ptr, ptr %7, align 8, !tbaa !41
  %133 = getelementptr inbounds nuw %"struct.(anonymous namespace)::pj_aea", ptr %132, i32 0, i32 4
  %134 = load double, ptr %133, align 8, !tbaa !68
  %135 = fdiv double %131, %134
  %136 = getelementptr inbounds nuw %struct.PJ_LP, ptr %4, i32 0, i32 1
  store double %135, ptr %136, align 8, !tbaa !73
  %137 = getelementptr inbounds nuw %struct.PJ_LP, ptr %4, i32 0, i32 1
  %138 = load double, ptr %137, align 8, !tbaa !73
  %139 = call double @llvm.fabs.f64(double %138)
  %140 = fcmp ole double %139, 1.000000e+00
  br i1 %140, label %141, label %146

141:                                              ; preds = %122
  %142 = getelementptr inbounds nuw %struct.PJ_LP, ptr %4, i32 0, i32 1
  %143 = load double, ptr %142, align 8, !tbaa !73
  %144 = call double @asin(double noundef %143) #8, !tbaa !52
  %145 = getelementptr inbounds nuw %struct.PJ_LP, ptr %4, i32 0, i32 1
  store double %144, ptr %145, align 8, !tbaa !73
  br label %152

146:                                              ; preds = %122
  %147 = getelementptr inbounds nuw %struct.PJ_LP, ptr %4, i32 0, i32 1
  %148 = load double, ptr %147, align 8, !tbaa !73
  %149 = fcmp olt double %148, 0.000000e+00
  %150 = select i1 %149, double 0xBFF921FB54442D18, double 0x3FF921FB54442D18
  %151 = getelementptr inbounds nuw %struct.PJ_LP, ptr %4, i32 0, i32 1
  store double %150, ptr %151, align 8, !tbaa !73
  br label %152

152:                                              ; preds = %146, %141
  br label %153

153:                                              ; preds = %152, %121
  %154 = getelementptr inbounds nuw %struct.PJ_XY, ptr %5, i32 0, i32 0
  %155 = load double, ptr %154, align 8, !tbaa !71
  %156 = getelementptr inbounds nuw %struct.PJ_XY, ptr %5, i32 0, i32 1
  %157 = load double, ptr %156, align 8, !tbaa !69
  %158 = call double @atan2(double noundef %155, double noundef %157) #8, !tbaa !52
  %159 = load ptr, ptr %7, align 8, !tbaa !41
  %160 = getelementptr inbounds nuw %"struct.(anonymous namespace)::pj_aea", ptr %159, i32 0, i32 1
  %161 = load double, ptr %160, align 8, !tbaa !57
  %162 = fdiv double %158, %161
  %163 = getelementptr inbounds nuw %struct.PJ_LP, ptr %4, i32 0, i32 0
  store double %162, ptr %163, align 8, !tbaa !75
  br label %172

164:                                              ; preds = %3
  %165 = getelementptr inbounds nuw %struct.PJ_LP, ptr %4, i32 0, i32 0
  store double 0.000000e+00, ptr %165, align 8, !tbaa !75
  %166 = load ptr, ptr %7, align 8, !tbaa !41
  %167 = getelementptr inbounds nuw %"struct.(anonymous namespace)::pj_aea", ptr %166, i32 0, i32 1
  %168 = load double, ptr %167, align 8, !tbaa !57
  %169 = fcmp ogt double %168, 0.000000e+00
  %170 = select i1 %169, double 0x3FF921FB54442D18, double 0xBFF921FB54442D18
  %171 = getelementptr inbounds nuw %struct.PJ_LP, ptr %4, i32 0, i32 1
  store double %170, ptr %171, align 8, !tbaa !73
  br label %172

172:                                              ; preds = %164, %153
  store i32 1, ptr %8, align 4
  br label %173

173:                                              ; preds = %172, %111, %94
  call void @llvm.lifetime.end.p0(i64 8, ptr %7) #8
  %174 = load { double, double }, ptr %4, align 8
  ret { double, double } %174
}