; Function Attrs: mustprogress uwtable
define internal { double, double } @_ZL13aea_e_inverse5PJ_XYP8PJconsts(double %0, double %1, ptr noundef %2) #0 {
  %4 = getelementptr inbounds nuw i8, ptr %2, i64 88
  %5 = load ptr, ptr %4, align 8, !tbaa !3
  %6 = getelementptr inbounds nuw i8, ptr %5, i64 40
  %7 = load double, ptr %6, align 8, !tbaa !62
  %8 = fsub double %7, %1
  %9 = tail call double @hypot(double noundef %0, double noundef %8) #7, !tbaa !51
  %10 = getelementptr inbounds nuw i8, ptr %5, i64 48
  store double %9, ptr %10, align 8, !tbaa !64
  %11 = fcmp une double %9, 0.000000e+00
  %12 = getelementptr inbounds nuw i8, ptr %5, i64 8
  %13 = load double, ptr %12, align 8, !tbaa !52
  br i1 %11, label %14, label %93

14:                                               ; preds = %3
  %15 = fcmp olt double %13, 0.000000e+00
  br i1 %15, label %16, label %20

16:                                               ; preds = %14
  %17 = fneg double %9
  store double %17, ptr %10, align 8, !tbaa !64
  %18 = fneg double %0
  %19 = fneg double %8
  br label %20

20:                                               ; preds = %16, %14
  %21 = phi double [ %17, %16 ], [ %9, %14 ]
  %.sroa.5.0 = phi double [ %19, %16 ], [ %8, %14 ]
  %.sroa.0.0 = phi double [ %18, %16 ], [ %0, %14 ]
  %22 = getelementptr inbounds nuw i8, ptr %5, i64 24
  %23 = load double, ptr %22, align 8, !tbaa !60
  %24 = fdiv double %21, %23
  %25 = getelementptr inbounds nuw i8, ptr %5, i64 80
  %26 = load i32, ptr %25, align 8, !tbaa !54
  %.not = icmp eq i32 %26, 0
  %27 = getelementptr inbounds nuw i8, ptr %5, i64 16
  %28 = load double, ptr %27, align 8, !tbaa !59
  %29 = fneg double %24
  %30 = tail call double @llvm.fmuladd.f64(double %29, double %24, double %28)
  br i1 %.not, label %79, label %31

31:                                               ; preds = %20
  %32 = fdiv double %30, %13
  %33 = load double, ptr %5, align 8, !tbaa !58
  %34 = tail call double @llvm.fabs.f64(double %32)
  %35 = fsub double %33, %34
  %36 = tail call double @llvm.fabs.f64(double %35)
  %37 = fcmp ogt double %36, 0x3E7AD7F29ABCAF48
  br i1 %37, label %38, label %76

38:                                               ; preds = %31
  %39 = fcmp ogt double %34, 2.000000e+00
  br i1 %39, label %40, label %42

40:                                               ; preds = %38
  %41 = tail call i32 @proj_errno_set(ptr noundef nonnull %2, i32 noundef 2050)
  br label %96

42:                                               ; preds = %38
  %43 = getelementptr inbounds nuw i8, ptr %2, i64 208
  %44 = load double, ptr %43, align 8, !tbaa !56
  %45 = getelementptr inbounds nuw i8, ptr %2, i64 256
  %46 = load double, ptr %45, align 8, !tbaa !57
  %47 = fmul double %32, 5.000000e-01
  %48 = tail call double @asin(double noundef %47) #7, !tbaa !51
  %49 = fcmp olt double %44, 0x3E7AD7F29ABCAF48
  br i1 %49, label %_ZL5phi1_ddd.exit, label %.preheader.i

.preheader.i:                                     ; preds = %42
  %50 = fdiv double %32, %46
  %51 = fdiv double 5.000000e-01, %44
  br label %52

52:                                               ; preds = %72, %.preheader.i
  %.026.i = phi double [ %69, %72 ], [ %48, %.preheader.i ]
  %.025.i = phi i32 [ %73, %72 ], [ 15, %.preheader.i ]
  %53 = tail call double @sin(double noundef %.026.i) #7, !tbaa !51
  %54 = tail call double @cos(double noundef %.026.i) #7, !tbaa !51
  %55 = fmul double %44, %53
  %56 = fneg double %55
  %57 = tail call double @llvm.fmuladd.f64(double %56, double %55, double 1.000000e+00)
  %58 = fmul double %57, 5.000000e-01
  %59 = fmul double %57, %58
  %60 = fdiv double %59, %54
  %61 = fdiv double %53, %57
  %62 = fsub double %50, %61
  %63 = fsub double 1.000000e+00, %55
  %64 = fadd double %55, 1.000000e+00
  %65 = fdiv double %63, %64
  %66 = tail call double @log(double noundef %65) #7, !tbaa !51
  %67 = tail call double @llvm.fmuladd.f64(double %51, double %66, double %62)
  %68 = fmul double %60, %67
  %69 = fadd double %.026.i, %68
  %70 = tail call double @llvm.fabs.f64(double %68)
  %71 = fcmp ogt double %70, 1.000000e-10
  br i1 %71, label %72, label %_ZL5phi1_ddd.exit

72:                                               ; preds = %52
  %73 = add nsw i32 %.025.i, -1
  %.not.i = icmp eq i32 %.025.i, 0
  br i1 %.not.i, label %_ZL5phi1_ddd.exit.thread, label %52, !llvm.loop !65

_ZL5phi1_ddd.exit:                                ; preds = %52, %42
  %.0.i = phi double [ %48, %42 ], [ %69, %52 ]
  %74 = fcmp oeq double %.0.i, 0x7FF0000000000000
  br i1 %74, label %_ZL5phi1_ddd.exit.thread, label %90

_ZL5phi1_ddd.exit.thread:                         ; preds = %72, %_ZL5phi1_ddd.exit
  %75 = tail call i32 @proj_errno_set(ptr noundef %2, i32 noundef 2050)
  br label %96

76:                                               ; preds = %31
  %77 = fcmp olt double %32, 0.000000e+00
  %78 = select i1 %77, double 0xBFF921FB54442D18, double 0x3FF921FB54442D18
  br label %90

79:                                               ; preds = %20
  %80 = getelementptr inbounds nuw i8, ptr %5, i64 32
  %81 = load double, ptr %80, align 8, !tbaa !63
  %82 = fdiv double %30, %81
  %83 = tail call double @llvm.fabs.f64(double %82)
  %84 = fcmp ugt double %83, 1.000000e+00
  br i1 %84, label %87, label %85

85:                                               ; preds = %79
  %86 = tail call double @asin(double noundef %82) #7, !tbaa !51
  br label %90

87:                                               ; preds = %79
  %88 = fcmp olt double %82, 0.000000e+00
  %89 = select i1 %88, double 0xBFF921FB54442D18, double 0x3FF921FB54442D18
  br label %90

90:                                               ; preds = %85, %87, %76, %_ZL5phi1_ddd.exit
  %.sroa.4.1 = phi double [ %.0.i, %_ZL5phi1_ddd.exit ], [ %78, %76 ], [ %86, %85 ], [ %89, %87 ]
  %91 = tail call double @atan2(double noundef %.sroa.0.0, double noundef %.sroa.5.0) #7, !tbaa !51
  %92 = fdiv double %91, %13
  br label %96

93:                                               ; preds = %3
  %94 = fcmp ogt double %13, 0.000000e+00
  %95 = select i1 %94, double 0x3FF921FB54442D18, double 0xBFF921FB54442D18
  br label %96

96:                                               ; preds = %90, %93, %_ZL5phi1_ddd.exit.thread, %40
  %.sroa.4.0 = phi double [ %32, %40 ], [ 0x7FF0000000000000, %_ZL5phi1_ddd.exit.thread ], [ %.sroa.4.1, %90 ], [ %95, %93 ]
  %.sroa.026.0 = phi double [ 0.000000e+00, %40 ], [ 0.000000e+00, %_ZL5phi1_ddd.exit.thread ], [ %92, %90 ], [ 0.000000e+00, %93 ]
  %.fca.0.insert = insertvalue { double, double } poison, double %.sroa.026.0, 0
  %.fca.1.insert = insertvalue { double, double } %.fca.0.insert, double %.sroa.4.0, 1
  ret { double, double } %.fca.1.insert
}